; Function Attrs: null_pointer_is_valid sspstrong uwtable
define void @fvalue_set_bytes_data(ptr noundef %0, ptr noundef %1, i64 noundef %2) local_unnamed_addr #0 {
  %4 = tail call ptr @g_bytes_new(ptr noundef %1, i64 noundef %2)
  %5 = load ptr, ptr %0, align 8
  %6 = getelementptr inbounds nuw i8, ptr %5, i64 112
  %7 = load ptr, ptr %6, align 8
  tail call void %7(ptr noundef %0, ptr noundef %4)
  tail call void @g_bytes_unref(ptr noundef %4)
  ret void
}